; Function Attrs: nofree norecurse nosync nounwind memory(read, inaccessiblemem: none) uwtable
define internal range(i32 0, 53) i32 @ppm_probe(ptr noundef readonly captures(none) %0) #10 {
  %2 = getelementptr i8, ptr %0, i64 8
  %.val = load ptr, ptr %2, align 8, !tbaa !90
  %3 = load i8, ptr %.val, align 1, !tbaa !68
  %4 = icmp eq i8 %3, 80
  br i1 %4, label %pnm_magic_check.exit, label %pnm_probe.exit

pnm_magic_check.exit:                             ; preds = %1
  %5 = getelementptr inbounds nuw i8, ptr %.val, i64 1
  %6 = load i8, ptr %5, align 1, !tbaa !68
  switch i8 %6, label %pnm_probe.exit [
    i8 51, label %.preheader
    i8 54, label %.preheader
  ]

.preheader:                                       ; preds = %pnm_magic_check.exit, %pnm_magic_check.exit
  br label %7

7:                                                ; preds = %.preheader, %10
  %.0.i = phi ptr [ %11, %10 ], [ %.val, %.preheader ]
  %8 = getelementptr inbounds nuw i8, ptr %.0.i, i64 2
  %9 = load i8, ptr %8, align 1, !tbaa !68
  switch i8 %9, label %.loopexit.i [
    i8 13, label %10
    i8 10, label %12
  ]

10:                                               ; preds = %7
  %11 = getelementptr inbounds nuw i8, ptr %.0.i, i64 1
  br label %7, !llvm.loop !131

12:                                               ; preds = %7
  %13 = getelementptr inbounds nuw i8, ptr %.0.i, i64 3
  %14 = load i8, ptr %13, align 1, !tbaa !68
  %15 = icmp eq i8 %14, 35
  %16 = add i8 %14, -48
  %or.cond.i = icmp ult i8 %16, 10
  %or.cond1.i = or i1 %15, %or.cond.i
  br i1 %or.cond1.i, label %pnm_probe.exit, label %.loopexit.i

.loopexit.i:                                      ; preds = %7, %12
  br label %pnm_probe.exit

pnm_probe.exit:                                   ; preds = %pnm_magic_check.exit, %1, %.loopexit.i, %12
  %17 = phi i32 [ 0, %.loopexit.i ], [ 52, %12 ], [ 0, %1 ], [ 0, %pnm_magic_check.exit ]
  ret i32 %17
}